(dp1
I0
S'Dinosaur Planet'
p2
sI1
S'Isle of Man TT 2004 Review'
p3
sI2
S'Character'
p4
sI3
S"Paula Abdul's Get Up & Dance"
p5
sI4
S'The Rise and Fall of ECW'
p6
sI5
S'Sick'
p7
sI6
S'8 Man'
p8
sI7
S'What the #$*! Do We Know!?'
p9
sI8
S"Class of Nuke 'Em High 2"
p10
sI9
S'Fighter'
p11
sI10
S'Full Frame: Documentary Shorts'
p12
sI11
S'My Favorite Brunette'
p13
sI12
S'Lord of the Rings: The Return of the King: Extended Edition: Bonus Material'
p14
sI13
S'Nature: Antarctica'
p15
sI14
S'Neil Diamond: Greatest Hits Live'
p16
sI15
S'Screamers'
p17
sI16
S'7 Seconds'
p18
sI17
S'Immortal Beloved'
p19
sI18
S"By Dawn's Early Light"
p20
sI19
S'Seeta Aur Geeta'
p21
sI20
S'Strange Relations'
p22
sI21
S'Chump Change'
p23
sI22
S"Clifford: Clifford Saves the Day! / Clifford's Fluffiest Friend Cleo"
p24
sI23
S'My Bloody Valentine'
p25
sI24
S'Inspector Morse 31: Death Is Now My Neighbour'
p26
sI25
S'Never Die Alone'
p27
sI26
S"Sesame Street: Elmo's World: The Street We Live On"
p28
sI27
S'Lilo and Stitch'
p29
sI28
S'Boycott'
p30
sI29
S"Something's Gotta Give"
p31
sI30
S'Classic Albums: Meat Loaf: Bat Out of Hell'
p32
sI31
S"ABC Primetime: Mel Gibson's The Passion of the Christ"
p33
sI32
S'Aqua Teen Hunger Force: Vol. 1'
p34
sI33
S"Ashtanga Yoga: Beginner's Practice with Nicki Doane"
p35
sI34
S'Ferngully 2: The Magical Rescue'
p36
sI35
S'Lady Chatterley'
p37
sI36
S"Zatoichi's Conspiracy"
p38
sI37
S'Daydream Obsession'
p39
sI38
S'Love Reinvented'
p40
sI39
S'Pitcher and the Pin-Up'
p41
sI40
S'Horror Vision'
p42
sI41
S'Searching for Paradise'
p43
sI42
S'Silent Service'
p44
sI43
S'Spitfire Grill'
p45
sI44
S'The Love Letter'
p46
sI45
S'Rudolph the Red-Nosed Reindeer'
p47
sI46
S'The Bad and the Beautiful'
p48
sI47
S'Justice League'
p49
sI48
S'Devo: The Complete Truth About De-evolution'
p50
sI49
S'A Yank in the R.A.F.'
p51
sI50
S'Jonah: A VeggieTales Movie: Bonus Material'
p52
sI51
S'The Weather Underground'
p53
sI52
S'The Bonesetter'
p54
sI53
S"We're Not Married"
p55
sI54
S'Jade'
p56
sI55
S'Carandiru'
p57
sI56
S'Richard III'
p58
sI57
S'Dragonheart'
p59
sI58
S'Sex and the Beauties'
p60
sI59
S'The Libertine'
p61
sI60
S'Ricky Martin: One Night Only'
p62
sI61
S"Ken Burns' America: Empire of the Air"
p63
sI62
S'Crash Dive'
p64
sI63
S'Outside the Law'
p65
sI64
S'Lost in the Pershing Point Hotel'
p66
sI65
S'Barbarian Queen 2'
p67
sI66
S'Vampire Journals'
p68
sI67
S'Invader Zim'
p69
sI68
S'WWE: Armageddon 2003'
p70
sI69
S'Tai Chi: The 24 Forms'
p71
sI70
S'Maya Lin: A Strong Clear Vision'
p72
sI71
S'At Home Among Strangers'
p73
sI72
S'Davy Crockett: 50th Anniversary Double Feature'
p74
sI73
S'6ixtynin9'
p75
sI74
S'Grind'
p76
sI75
S'I Love Lucy: Season 2'
p77
sI76
S'Congo'
p78
sI77
S'Jingle All the Way'
p79
sI78
S'The Killing'
p80
sI79
S'Winter Kills'
p81
sI80
S'Antarctica: IMAX'
p82
sI81
S'The Frogmen'
p83
sI82
S'Silkwood'
p84
sI83
S'The Powerpuff Girls Movie'
p85
sI84
S'Elfen Lied'
p86
sI85
S'Iron Monkey 2'
p87
sI86
S'Louder Than Bombs'
p88
sI87
S'Record of Lodoss War: Chronicles of the Heroic Knight'
p89
sI88
S'Chain of Command'
p90
sI89
S'The Lemon Drop Kid'
p91
sI90
S'WWE: Royal Rumble 2005'
p92
sI91
S"ECW: Cyberslam '99"
p93
sI92
S'They Came Back'
p94
sI93
S'G3: Live in Concert'
p95
sI94
S'Dona Herlinda and Her Son'
p96
sI95
S'Inside the Space Station'
p97
sI96
S'Mostly Martha'
p98
sI97
S'The Battle of Algiers: Bonus Material'
p99
sI98
S'A Fishy Story'
p100
sI99
S'Sam the Iron Bridge'
p101
s.