(dp0
I0
(lp1
I1
aI3
asI1
(lp2
I3
asI2
(lp3
sI3
(lp4
I0
aI3
asI4
(lp5
sI5
(lp6
I0
aI3
aI4
asI6
(lp7
I3
asI7
(lp8
I1
asI8
(lp9
I4
asI9
(lp10
sI10
(lp11
I4
asI11
(lp12
I0
asI12
(lp13
sI13
(lp14
I2
asI14
(lp15
I1
asI15
(lp16
sI16
(lp17
I0
aI2
asI17
(lp18
I4
asI18
(lp19
sI19
(lp20
s.